; Function Attrs: mustprogress uwtable
define noundef i32 @_ZN3zmq6dist_t11send_to_allEPNS_5msg_tE(ptr noundef nonnull align 8 captures(none) dereferenceable(49) initializes((24, 32)) %0, ptr noundef nonnull %1) local_unnamed_addr #6 align 2 {
  %3 = getelementptr inbounds nuw i8, ptr %0, i64 32
  %4 = load i64, ptr %3, align 8, !tbaa !32
  %5 = getelementptr inbounds nuw i8, ptr %0, i64 24
  store i64 %4, ptr %5, align 8, !tbaa !33
  %6 = tail call noundef zeroext i8 @_ZNK3zmq5msg_t5flagsEv(ptr noundef nonnull align 8 dereferenceable(64) %1)
  %7 = and i8 %6, 1
  %.not.i = icmp eq i8 %7, 0
  tail call void @_ZN3zmq6dist_t10distributeEPNS_5msg_tE(ptr noundef nonnull align 8 dereferenceable(49) %0, ptr noundef nonnull %1)
  br i1 %.not.i, label %8, label %_ZN3zmq6dist_t16send_to_matchingEPNS_5msg_tE.exit

8:                                                ; preds = %2
  %9 = getelementptr inbounds nuw i8, ptr %0, i64 40
  %10 = load i64, ptr %9, align 8, !tbaa !31
  store i64 %10, ptr %3, align 8, !tbaa !32
  br label %_ZN3zmq6dist_t16send_to_matchingEPNS_5msg_tE.exit

_ZN3zmq6dist_t16send_to_matchingEPNS_5msg_tE.exit: ; preds = %2, %8
  %11 = getelementptr inbounds nuw i8, ptr %0, i64 48
  store i8 %7, ptr %11, align 8, !tbaa !14
  ret i32 0
}